; ModuleID = '15/93.c'
source_filename = "15/93.c"
target datalayout = "e-m:e-p270:32:32-p271:32:32-p272:64:64-i64:64-f80:128-n8:16:32:64-S128"
target triple = "x86_64-pc-linux-gnu"

@.str = private unnamed_addr constant [3 x i8] c"%d\00", align 1

; Function Attrs: noinline nounwind uwtable
define dso_local i32 @main() #0 {
  %1 = alloca i32, align 4
  %2 = alloca [10 x [10 x i32]], align 16
  %3 = alloca i32, align 4
  %4 = alloca i32, align 4
  %5 = alloca i32, align 4
  %6 = alloca i32, align 4
  %7 = alloca i32, align 4
  %8 = alloca i32, align 4
  %9 = alloca i32, align 4
  %10 = alloca i32, align 4
  store i32 0, i32* %1, align 4
  %11 = call i32 (i8*, ...) @__isoc99_scanf(i8* getelementptr inbounds ([3 x i8], [3 x i8]* @.str, i64 0, i64 0), i32* %4)
  store i32 0, i32* %7, align 4
  store i32 0, i32* %9, align 4
  store i32 0, i32* %7, align 4
  store i32 0, i32* %8, align 4
  store i32 0, i32* %5, align 4
  br label %12

12:                                               ; preds = %59, %0
  %13 = load i32, i32* %5, align 4
  %14 = load i32, i32* %4, align 4
  %15 = icmp slt i32 %13, %14
  br i1 %15, label %16, label %62

16:                                               ; preds = %12
  store i32 0, i32* %10, align 4
  store i32 0, i32* %6, align 4
  br label %17

17:                                               ; preds = %43, %16
  %18 = load i32, i32* %6, align 4
  %19 = load i32, i32* %4, align 4
  %20 = icmp slt i32 %18, %19
  br i1 %20, label %21, label %46

21:                                               ; preds = %17
  %22 = load i32, i32* %5, align 4
  %23 = sext i32 %22 to i64
  %24 = getelementptr inbounds [10 x [10 x i32]], [10 x [10 x i32]]* %2, i64 0, i64 %23
  %25 = load i32, i32* %6, align 4
  %26 = sext i32 %25 to i64
  %27 = getelementptr inbounds [10 x i32], [10 x i32]* %24, i64 0, i64 %26
  %28 = call i32 (i8*, ...) @__isoc99_scanf(i8* getelementptr inbounds ([3 x i8], [3 x i8]* @.str, i64 0, i64 0), i32* %27)
  %29 = load i32, i32* %5, align 4
  %30 = sext i32 %29 to i64
  %31 = getelementptr inbounds [10 x [10 x i32]], [10 x [10 x i32]]* %2, i64 0, i64 %30
  %32 = load i32, i32* %6, align 4
  %33 = sext i32 %32 to i64
  %34 = getelementptr inbounds [10 x i32], [10 x i32]* %31, i64 0, i64 %33
  %35 = load i32, i32* %34, align 4
  %36 = icmp eq i32 %35, 0
  br i1 %36, label %37, label %42

37:                                               ; preds = %21
  %38 = load i32, i32* %10, align 4
  %39 = add nsw i32 %38, 1
  store i32 %39, i32* %10, align 4
  %40 = load i32, i32* %9, align 4
  %41 = add nsw i32 %40, 1
  store i32 %41, i32* %9, align 4
  br label %42

42:                                               ; preds = %37, %21
  br label %43

43:                                               ; preds = %42
  %44 = load i32, i32* %6, align 4
  %45 = add nsw i32 %44, 1
  store i32 %45, i32* %6, align 4
  br label %17

46:                                               ; preds = %17
  %47 = load i32, i32* %10, align 4
  %48 = icmp sgt i32 %47, 1
  br i1 %48, label %49, label %52

49:                                               ; preds = %46
  %50 = load i32, i32* %8, align 4
  %51 = add nsw i32 %50, 1
  store i32 %51, i32* %8, align 4
  br label %52

52:                                               ; preds = %49, %46
  %53 = load i32, i32* %10, align 4
  %54 = load i32, i32* %7, align 4
  %55 = icmp sgt i32 %53, %54
  br i1 %55, label %56, label %58

56:                                               ; preds = %52
  %57 = load i32, i32* %10, align 4
  store i32 %57, i32* %7, align 4
  br label %58

58:                                               ; preds = %56, %52
  br label %59

59:                                               ; preds = %58
  %60 = load i32, i32* %5, align 4
  %61 = add nsw i32 %60, 1
  store i32 %61, i32* %5, align 4
  br label %12

62:                                               ; preds = %12
  %63 = load i32, i32* %8, align 4
  %64 = load i32, i32* %7, align 4
  %65 = mul nsw i32 %63, %64
  %66 = load i32, i32* %9, align 4
  %67 = sub nsw i32 %65, %66
  store i32 %67, i32* %3, align 4
  %68 = load i32, i32* %3, align 4
  %69 = call i32 (i8*, ...) @printf(i8* getelementptr inbounds ([3 x i8], [3 x i8]* @.str, i64 0, i64 0), i32 %68)
  ret i32 0
}

declare dso_local i32 @__isoc99_scanf(i8*, ...) #1

declare dso_local i32 @printf(i8*, ...) #1


!llvm.module.flags = !{!0}
!llvm.ident = !{!1}

!0 = !{i32 1, !"wchar_size", i32 4}
!1 = !{!"clang version 10.0.0-4ubuntu1 "}
