; ModuleID = 'source-C-CXX/14/93.c'
source_filename = "source-C-CXX/14/93.c"
target datalayout = "e-m:e-p270:32:32-p271:32:32-p272:64:64-i64:64-f80:128-n8:16:32:64-S128"
target triple = "x86_64-pc-linux-gnu"

@.str = private unnamed_addr constant [3 x i8] c"%d\00", align 1

; Function Attrs: nofree nounwind sspstrong uwtable
define dso_local i32 @main() local_unnamed_addr #0 {
  %1 = alloca [10 x [10 x i32]], align 16
  %2 = alloca i32, align 4
  %3 = bitcast [10 x [10 x i32]]* %1 to i8*
  call void @llvm.lifetime.start.p0i8(i64 400, i8* nonnull %3) #3
  %4 = bitcast i32* %2 to i8*
  call void @llvm.lifetime.start.p0i8(i64 4, i8* nonnull %4) #3
  %5 = call i32 (i8*, ...) @__isoc99_scanf(i8* getelementptr inbounds ([3 x i8], [3 x i8]* @.str, i64 0, i64 0), i32* nonnull %2)
  %6 = load i32, i32* %2, align 4, !tbaa !5
  %7 = icmp sgt i32 %6, 0
  br i1 %7, label %8, label %42

8:                                                ; preds = %0, %30
  %9 = phi i32 [ %31, %30 ], [ %6, %0 ]
  %10 = phi i64 [ %40, %30 ], [ 0, %0 ]
  %11 = phi i32 [ %32, %30 ], [ 0, %0 ]
  %12 = phi i32 [ %37, %30 ], [ 0, %0 ]
  %13 = phi i32 [ %39, %30 ], [ 0, %0 ]
  %14 = icmp sgt i32 %9, 0
  br i1 %14, label %15, label %30

15:                                               ; preds = %8, %15
  %16 = phi i64 [ %26, %15 ], [ 0, %8 ]
  %17 = phi i32 [ %25, %15 ], [ 0, %8 ]
  %18 = phi i32 [ %24, %15 ], [ %11, %8 ]
  %19 = getelementptr inbounds [10 x [10 x i32]], [10 x [10 x i32]]* %1, i64 0, i64 %10, i64 %16
  %20 = call i32 (i8*, ...) @__isoc99_scanf(i8* getelementptr inbounds ([3 x i8], [3 x i8]* @.str, i64 0, i64 0), i32* nonnull %19)
  %21 = load i32, i32* %19, align 4, !tbaa !5
  %22 = icmp eq i32 %21, 0
  %23 = zext i1 %22 to i32
  %24 = add nsw i32 %18, %23
  %25 = add nuw nsw i32 %17, %23
  %26 = add nuw nsw i64 %16, 1
  %27 = load i32, i32* %2, align 4, !tbaa !5
  %28 = sext i32 %27 to i64
  %29 = icmp slt i64 %26, %28
  br i1 %29, label %15, label %30, !llvm.loop !9

30:                                               ; preds = %15, %8
  %31 = phi i32 [ %9, %8 ], [ %27, %15 ]
  %32 = phi i32 [ %11, %8 ], [ %24, %15 ]
  %33 = phi i32 [ 0, %8 ], [ %25, %15 ]
  %34 = sext i32 %31 to i64
  %35 = icmp ugt i32 %33, 1
  %36 = zext i1 %35 to i32
  %37 = add nuw nsw i32 %12, %36
  %38 = icmp sgt i32 %33, %13
  %39 = select i1 %38, i32 %33, i32 %13
  %40 = add nuw nsw i64 %10, 1
  %41 = icmp slt i64 %40, %34
  br i1 %41, label %8, label %42, !llvm.loop !11

42:                                               ; preds = %30, %0
  %43 = phi i32 [ 0, %0 ], [ %39, %30 ]
  %44 = phi i32 [ 0, %0 ], [ %37, %30 ]
  %45 = phi i32 [ 0, %0 ], [ %32, %30 ]
  %46 = mul nsw i32 %44, %43
  %47 = sub nsw i32 %46, %45
  %48 = call i32 (i8*, ...) @printf(i8* nonnull dereferenceable(1) getelementptr inbounds ([3 x i8], [3 x i8]* @.str, i64 0, i64 0), i32 %47)
  call void @llvm.lifetime.end.p0i8(i64 4, i8* nonnull %4) #3
  call void @llvm.lifetime.end.p0i8(i64 400, i8* nonnull %3) #3
  ret i32 0
}

; Function Attrs: argmemonly mustprogress nofree nosync nounwind willreturn
declare void @llvm.lifetime.start.p0i8(i64 immarg, i8* nocapture) #1

; Function Attrs: nofree nounwind
declare noundef i32 @__isoc99_scanf(i8* nocapture noundef readonly, ...) local_unnamed_addr #2

; Function Attrs: nofree nounwind
declare noundef i32 @printf(i8* nocapture noundef readonly, ...) local_unnamed_addr #2

; Function Attrs: argmemonly mustprogress nofree nosync nounwind willreturn
declare void @llvm.lifetime.end.p0i8(i64 immarg, i8* nocapture) #1


!llvm.module.flags = !{!0, !1, !2, !3}
!llvm.ident = !{!4}

!0 = !{i32 1, !"wchar_size", i32 4}
!1 = !{i32 7, !"PIC Level", i32 2}
!2 = !{i32 7, !"PIE Level", i32 2}
!3 = !{i32 7, !"uwtable", i32 1}
!4 = !{!"clang version 13.0.0"}
!5 = !{!6, !6, i64 0}
!6 = !{!"int", !7, i64 0}
!7 = !{!"omnipotent char", !8, i64 0}
!8 = !{!"Simple C/C++ TBAA"}
!9 = distinct !{!9, !10}
!10 = !{!"llvm.loop.mustprogress"}
!11 = distinct !{!11, !10, !12}
!12 = !{!"llvm.loop.unswitch.partial.disable"}
